; Function Attrs: mustprogress uwtable
define dso_local noundef zeroext i32 @_ZN5vcpkg10ParserBase4nextEv(ptr noundef nonnull align 8 dereferenceable(176) %0) local_unnamed_addr #0 align 2 personality ptr @__gxx_personality_v0 {
  %2 = alloca %"struct.vcpkg::LineInfo", align 8
  %3 = load i32, ptr %0, align 8, !tbaa !15
  %4 = icmp eq i32 %3, -1
  br i1 %4, label %33, label %_ZNK5vcpkg7Unicode11Utf8DecoderdeEv.exit

_ZNK5vcpkg7Unicode11Utf8DecoderdeEv.exit:         ; preds = %1
  %5 = getelementptr inbounds nuw i8, ptr %0, i64 64
  %6 = getelementptr inbounds nuw i8, ptr %0, i64 68
  %7 = load i32, ptr %5, align 8, !tbaa !71
  %8 = icmp eq i32 %7, 0
  %9 = load i32, ptr %6, align 4
  %10 = icmp eq i32 %9, 0
  %or.cond.i = select i1 %8, i1 %10, i1 false
  br i1 %or.cond.i, label %_ZN5vcpkgL14advance_rowcolEDiRiS0_.exit, label %11

11:                                               ; preds = %_ZNK5vcpkg7Unicode11Utf8DecoderdeEv.exit
  %brmerge.i = select i1 %8, i1 true, i1 %10
  br i1 %brmerge.i, label %12, label %14

12:                                               ; preds = %11
  call void @llvm.lifetime.start.p0(i64 16, ptr nonnull %2) #21
  store i32 18, ptr %2, align 8, !tbaa !29
  %13 = getelementptr inbounds nuw i8, ptr %2, i64 8
  store ptr @.str.2, ptr %13, align 8, !tbaa !32
  call void @_ZN5vcpkg6Checks11unreachableERKNS_8LineInfoE(ptr noundef nonnull align 8 dereferenceable(16) %2) #22
  unreachable

14:                                               ; preds = %11
  switch i32 %3, label %21 [
    i32 9, label %15
    i32 10, label %19
  ]

15:                                               ; preds = %14
  %16 = add nsw i32 %9, 7
  %17 = and i32 %16, -8
  %18 = or disjoint i32 %17, 1
  br label %.sink.split.i

19:                                               ; preds = %14
  %20 = add nsw i32 %7, 1
  store i32 %20, ptr %5, align 8, !tbaa !71
  br label %.sink.split.i

21:                                               ; preds = %14
  %22 = add nsw i32 %9, 1
  br label %.sink.split.i

.sink.split.i:                                    ; preds = %21, %19, %15
  %.sink.i = phi i32 [ 1, %19 ], [ %22, %21 ], [ %18, %15 ]
  store i32 %.sink.i, ptr %6, align 4, !tbaa !71
  br label %_ZN5vcpkgL14advance_rowcolEDiRiS0_.exit

_ZN5vcpkgL14advance_rowcolEDiRiS0_.exit:          ; preds = %_ZNK5vcpkg7Unicode11Utf8DecoderdeEv.exit, %.sink.split.i
  %23 = tail call noundef nonnull align 8 dereferenceable(32) ptr @_ZN5vcpkg7Unicode11Utf8DecoderppEv(ptr noundef nonnull align 8 dereferenceable(32) %0) #21
  %24 = icmp eq i32 %3, 10
  br i1 %24, label %25, label %27

25:                                               ; preds = %_ZN5vcpkgL14advance_rowcolEDiRiS0_.exit
  %26 = getelementptr inbounds nuw i8, ptr %0, i64 32
  tail call void @llvm.memcpy.p0.p0.i64(ptr noundef nonnull align 8 dereferenceable(32) %26, ptr noundef nonnull align 8 dereferenceable(32) %0, i64 32, i1 false), !tbaa.struct !7
  br label %27

27:                                               ; preds = %25, %_ZN5vcpkgL14advance_rowcolEDiRiS0_.exit
  %28 = load i32, ptr %0, align 8, !tbaa !15
  %29 = and i32 %28, -2048
  %30 = icmp eq i32 %29, 55296
  br i1 %30, label %31, label %33

31:                                               ; preds = %27
  %32 = tail call noundef nonnull align 8 dereferenceable(32) ptr @_ZN5vcpkg7Unicode11Utf8DecoderaSENS1_8sentinelE(ptr noundef nonnull align 8 dereferenceable(32) %0) #21
  %.pre = load i32, ptr %0, align 8, !tbaa !15
  br label %33

33:                                               ; preds = %27, %31, %1
  %.0 = phi i32 [ -1, %1 ], [ %.pre, %31 ], [ %28, %27 ]
  ret i32 %.0
}